; Function Attrs: nounwind uwtable
define noalias noundef nonnull ptr @l_Lake_Env_path(ptr noundef readonly captures(none) %0) local_unnamed_addr #0 {
  %2 = getelementptr inbounds nuw i8, ptr %0, i64 8
  %3 = load ptr, ptr %2, align 8, !tbaa !9
  %4 = getelementptr inbounds nuw i8, ptr %3, i64 24
  %5 = load ptr, ptr %4, align 8, !tbaa !9
  %6 = getelementptr inbounds nuw i8, ptr %0, i64 16
  %7 = load ptr, ptr %6, align 8, !tbaa !9
  %8 = getelementptr inbounds nuw i8, ptr %7, i64 56
  %9 = load ptr, ptr %8, align 8, !tbaa !9
  %10 = icmp eq ptr %5, %9
  br i1 %10, label %lean_string_dec_eq.exit.thread46, label %11

11:                                               ; preds = %1
  %12 = getelementptr i8, ptr %5, i64 8
  %.val.i.i = load i64, ptr %12, align 8, !tbaa !12
  %13 = getelementptr i8, ptr %9, i64 8
  %.val7.i.i = load i64, ptr %13, align 8, !tbaa !12
  %14 = icmp eq i64 %.val.i.i, %.val7.i.i
  br i1 %14, label %lean_string_dec_eq.exit, label %lean_string_dec_eq.exit.thread

lean_string_dec_eq.exit:                          ; preds = %11
  %15 = tail call zeroext i1 @lean_string_eq_cold(ptr noundef nonnull %5, ptr noundef nonnull %9) #6
  br i1 %15, label %lean_string_dec_eq.exit.thread46, label %lean_string_dec_eq.exit.thread

lean_string_dec_eq.exit.thread:                   ; preds = %11, %lean_string_dec_eq.exit
  %16 = getelementptr inbounds nuw i8, ptr %0, i64 88
  %17 = load ptr, ptr %16, align 8, !tbaa !9
  %18 = ptrtoint ptr %17 to i64
  %19 = and i64 %18, 1
  %.not = icmp eq i64 %19, 0
  br i1 %.not, label %20, label %lean_inc.exit31

20:                                               ; preds = %lean_string_dec_eq.exit.thread
  %.val.i = load i32, ptr %17, align 4, !tbaa !4
  %21 = icmp sgt i32 %.val.i, 0
  br i1 %21, label %22, label %24, !prof !11

22:                                               ; preds = %20
  %23 = add nuw i32 %.val.i, 1
  store i32 %23, ptr %17, align 4, !tbaa !4
  br label %lean_inc.exit31

24:                                               ; preds = %20
  %.not.i = icmp eq i32 %.val.i, 0
  br i1 %.not.i, label %lean_inc.exit31, label %25

25:                                               ; preds = %24
  tail call void @lean_inc_ref_cold(ptr noundef nonnull %17) #6
  br label %lean_inc.exit31

lean_inc.exit31:                                  ; preds = %25, %24, %22, %lean_string_dec_eq.exit.thread
  %26 = ptrtoint ptr %9 to i64
  %27 = and i64 %26, 1
  %.not47 = icmp eq i64 %27, 0
  br i1 %.not47, label %28, label %lean_inc.exit30

28:                                               ; preds = %lean_inc.exit31
  %.val.i32 = load i32, ptr %9, align 4, !tbaa !4
  %29 = icmp sgt i32 %.val.i32, 0
  br i1 %29, label %30, label %32, !prof !11

30:                                               ; preds = %28
  %31 = add nuw i32 %.val.i32, 1
  store i32 %31, ptr %9, align 4, !tbaa !4
  br label %lean_inc.exit30

32:                                               ; preds = %28
  %.not.i33 = icmp eq i32 %.val.i32, 0
  br i1 %.not.i33, label %lean_inc.exit30, label %33

33:                                               ; preds = %32
  tail call void @lean_inc_ref_cold(ptr noundef nonnull %9) #6
  br label %lean_inc.exit30

lean_inc.exit30:                                  ; preds = %33, %32, %30, %lean_inc.exit31
  tail call void @lean_inc_heartbeat() #6
  %34 = tail call noalias ptr @mi_malloc_small(i64 noundef 24) #6
  %35 = icmp eq ptr %34, null
  br i1 %35, label %36, label %lean_alloc_ctor.exit

36:                                               ; preds = %lean_inc.exit30
  tail call void @lean_internal_panic_out_of_memory() #7
  unreachable

lean_alloc_ctor.exit:                             ; preds = %lean_inc.exit30
  %37 = getelementptr inbounds nuw i8, ptr %34, i64 4
  store i32 1, ptr %34, align 4, !tbaa !4
  store i32 16908312, ptr %37, align 4
  %38 = getelementptr inbounds nuw i8, ptr %34, i64 8
  store ptr %9, ptr %38, align 8, !tbaa !9
  %39 = getelementptr inbounds nuw i8, ptr %34, i64 16
  store ptr %17, ptr %39, align 8, !tbaa !9
  %40 = ptrtoint ptr %5 to i64
  %41 = and i64 %40, 1
  %.not48 = icmp eq i64 %41, 0
  br i1 %.not48, label %42, label %lean_inc.exit29

42:                                               ; preds = %lean_alloc_ctor.exit
  %.val.i35 = load i32, ptr %5, align 4, !tbaa !4
  %43 = icmp sgt i32 %.val.i35, 0
  br i1 %43, label %44, label %46, !prof !11

44:                                               ; preds = %42
  %45 = add nuw i32 %.val.i35, 1
  store i32 %45, ptr %5, align 4, !tbaa !4
  br label %lean_inc.exit29

46:                                               ; preds = %42
  %.not.i36 = icmp eq i32 %.val.i35, 0
  br i1 %.not.i36, label %lean_inc.exit29, label %47

47:                                               ; preds = %46
  tail call void @lean_inc_ref_cold(ptr noundef nonnull %5) #6
  br label %lean_inc.exit29

lean_inc.exit29:                                  ; preds = %47, %46, %44, %lean_alloc_ctor.exit
  tail call void @lean_inc_heartbeat() #6
  %48 = tail call noalias ptr @mi_malloc_small(i64 noundef 24) #6
  %49 = icmp eq ptr %48, null
  br i1 %49, label %50, label %lean_alloc_ctor.exit38

50:                                               ; preds = %lean_inc.exit29
  tail call void @lean_internal_panic_out_of_memory() #7
  unreachable

lean_string_dec_eq.exit.thread46:                 ; preds = %1, %lean_string_dec_eq.exit
  %51 = getelementptr inbounds nuw i8, ptr %0, i64 88
  %52 = load ptr, ptr %51, align 8, !tbaa !9
  %53 = ptrtoint ptr %52 to i64
  %54 = and i64 %53, 1
  %.not49 = icmp eq i64 %54, 0
  br i1 %.not49, label %55, label %lean_inc.exit28

55:                                               ; preds = %lean_string_dec_eq.exit.thread46
  %.val.i39 = load i32, ptr %52, align 4, !tbaa !4
  %56 = icmp sgt i32 %.val.i39, 0
  br i1 %56, label %57, label %59, !prof !11

57:                                               ; preds = %55
  %58 = add nuw i32 %.val.i39, 1
  store i32 %58, ptr %52, align 4, !tbaa !4
  br label %lean_inc.exit28

59:                                               ; preds = %55
  %.not.i40 = icmp eq i32 %.val.i39, 0
  br i1 %.not.i40, label %lean_inc.exit28, label %60

60:                                               ; preds = %59
  tail call void @lean_inc_ref_cold(ptr noundef nonnull %52) #6
  br label %lean_inc.exit28

lean_inc.exit28:                                  ; preds = %60, %59, %57, %lean_string_dec_eq.exit.thread46
  %61 = ptrtoint ptr %9 to i64
  %62 = and i64 %61, 1
  %.not50 = icmp eq i64 %62, 0
  br i1 %.not50, label %63, label %lean_inc.exit

63:                                               ; preds = %lean_inc.exit28
  %.val.i42 = load i32, ptr %9, align 4, !tbaa !4
  %64 = icmp sgt i32 %.val.i42, 0
  br i1 %64, label %65, label %67, !prof !11

65:                                               ; preds = %63
  %66 = add nuw i32 %.val.i42, 1
  store i32 %66, ptr %9, align 4, !tbaa !4
  br label %lean_inc.exit

67:                                               ; preds = %63
  %.not.i43 = icmp eq i32 %.val.i42, 0
  br i1 %.not.i43, label %lean_inc.exit, label %68

68:                                               ; preds = %67
  tail call void @lean_inc_ref_cold(ptr noundef nonnull %9) #6
  br label %lean_inc.exit

lean_inc.exit:                                    ; preds = %68, %67, %65, %lean_inc.exit28
  tail call void @lean_inc_heartbeat() #6
  %69 = tail call noalias ptr @mi_malloc_small(i64 noundef 24) #6
  %70 = icmp eq ptr %69, null
  br i1 %70, label %71, label %lean_alloc_ctor.exit38

71:                                               ; preds = %lean_inc.exit
  tail call void @lean_internal_panic_out_of_memory() #7
  unreachable

lean_alloc_ctor.exit38:                           ; preds = %lean_inc.exit, %lean_inc.exit29
  %.sink58 = phi ptr [ %48, %lean_inc.exit29 ], [ %69, %lean_inc.exit ]
  %.sink53 = phi ptr [ %5, %lean_inc.exit29 ], [ %9, %lean_inc.exit ]
  %.sink = phi ptr [ %34, %lean_inc.exit29 ], [ %52, %lean_inc.exit ]
  %72 = getelementptr inbounds nuw i8, ptr %.sink58, i64 4
  store i32 1, ptr %.sink58, align 4, !tbaa !4
  store i32 16908312, ptr %72, align 4
  %73 = getelementptr inbounds nuw i8, ptr %.sink58, i64 8
  store ptr %.sink53, ptr %73, align 8, !tbaa !9
  %74 = getelementptr inbounds nuw i8, ptr %.sink58, i64 16
  store ptr %.sink, ptr %74, align 8, !tbaa !9
  ret ptr %.sink58
}